; Function Attrs: mustprogress nofree norecurse nosync nounwind willreturn memory(read, inaccessiblemem: none) uwtable
define noundef i64 @_ZN4base8internal5rfindERKNS_16BasicStringPieceINSt7__cxx1112basic_stringIcSt11char_traitsIcESaIcEEEEEcm(ptr noundef nonnull readonly align 8 captures(none) dereferenceable(16) %0, i8 noundef signext %1, i64 noundef %2) local_unnamed_addr #5 {
  %4 = getelementptr inbounds nuw i8, ptr %0, i64 8
  %5 = load i64, ptr %4, align 8, !tbaa !10
  %6 = icmp eq i64 %5, 0
  br i1 %6, label %_ZN4base8internal6rfindTINSt7__cxx1112basic_stringIcSt11char_traitsIcESaIcEEEEEmRKNS_16BasicStringPieceIT_EENS9_10value_typeEm.exit, label %7

7:                                                ; preds = %3
  %8 = add i64 %5, -1
  %.sroa.speculated.i = tail call i64 @llvm.umin.i64(i64 %8, i64 %2)
  %9 = load ptr, ptr %0, align 8, !tbaa !3
  %10 = getelementptr inbounds nuw i8, ptr %9, i64 %.sroa.speculated.i
  %11 = load i8, ptr %10, align 1, !tbaa !16
  %12 = icmp eq i8 %11, %1
  br i1 %12, label %_ZN4base8internal6rfindTINSt7__cxx1112basic_stringIcSt11char_traitsIcESaIcEEEEEmRKNS_16BasicStringPieceIT_EENS9_10value_typeEm.exit, label %.lr.ph.i

.lr.ph.i:                                         ; preds = %7, %14
  %.0914.i = phi i64 [ %15, %14 ], [ %.sroa.speculated.i, %7 ]
  %13 = icmp eq i64 %.0914.i, 0
  br i1 %13, label %_ZN4base8internal6rfindTINSt7__cxx1112basic_stringIcSt11char_traitsIcESaIcEEEEEmRKNS_16BasicStringPieceIT_EENS9_10value_typeEm.exit, label %14

14:                                               ; preds = %.lr.ph.i
  %15 = add i64 %.0914.i, -1
  %16 = getelementptr inbounds nuw i8, ptr %9, i64 %15
  %17 = load i8, ptr %16, align 1, !tbaa !16
  %18 = icmp eq i8 %17, %1
  br i1 %18, label %_ZN4base8internal6rfindTINSt7__cxx1112basic_stringIcSt11char_traitsIcESaIcEEEEEmRKNS_16BasicStringPieceIT_EENS9_10value_typeEm.exit, label %.lr.ph.i, !llvm.loop !23

_ZN4base8internal6rfindTINSt7__cxx1112basic_stringIcSt11char_traitsIcESaIcEEEEEmRKNS_16BasicStringPieceIT_EENS9_10value_typeEm.exit: ; preds = %.lr.ph.i, %14, %3, %7
  %.010.i = phi i64 [ -1, %3 ], [ %.sroa.speculated.i, %7 ], [ %15, %14 ], [ -1, %.lr.ph.i ]
  ret i64 %.010.i
}